; Function Attrs: nofree norecurse nosync nounwind memory(readwrite, inaccessiblemem: none) uwtable
define internal void @SDL_Blit_ARGB8888_XRGB8888_Modulate_Scale(ptr noundef captures(none) %0) #0 {
  %2 = getelementptr inbounds nuw i8, ptr %0, i64 112
  %3 = load i32, ptr %2, align 8
  %4 = getelementptr inbounds nuw i8, ptr %0, i64 120
  %5 = load i8, ptr %4, align 8
  %6 = zext i8 %5 to i32
  %7 = getelementptr inbounds nuw i8, ptr %0, i64 121
  %8 = load i8, ptr %7, align 1
  %9 = zext i8 %8 to i32
  %10 = getelementptr inbounds nuw i8, ptr %0, i64 122
  %11 = load i8, ptr %10, align 2
  %12 = zext i8 %11 to i32
  %13 = getelementptr inbounds nuw i8, ptr %0, i64 20
  %14 = load i32, ptr %13, align 4
  %15 = sext i32 %14 to i64
  %16 = shl nsw i64 %15, 16
  %17 = getelementptr inbounds nuw i8, ptr %0, i64 52
  %18 = load i32, ptr %17, align 4
  %19 = sext i32 %18 to i64
  %20 = udiv i64 %16, %19
  %21 = getelementptr inbounds nuw i8, ptr %0, i64 16
  %22 = load i32, ptr %21, align 8
  %23 = sext i32 %22 to i64
  %24 = shl nsw i64 %23, 16
  %25 = getelementptr inbounds nuw i8, ptr %0, i64 48
  %26 = load i32, ptr %25, align 8
  %27 = sext i32 %26 to i64
  %28 = udiv i64 %24, %27
  %29 = add nsw i32 %18, -1
  store i32 %29, ptr %17, align 4
  %.not65 = icmp eq i32 %18, 0
  br i1 %.not65, label %._crit_edge69, label %.lr.ph68

.lr.ph68:                                         ; preds = %1
  %30 = getelementptr inbounds nuw i8, ptr %0, i64 40
  %31 = lshr i64 %28, 1
  %32 = getelementptr inbounds nuw i8, ptr %0, i64 8
  %33 = getelementptr inbounds nuw i8, ptr %0, i64 24
  %34 = and i32 %3, 1
  %.not61 = icmp eq i32 %34, 0
  %35 = getelementptr inbounds nuw i8, ptr %0, i64 56
  %36 = icmp eq i32 %26, 0
  br i1 %36, label %.lr.ph68.split.us, label %.lr.ph68.split.preheader

.lr.ph68.split.preheader:                         ; preds = %.lr.ph68
  %37 = lshr i64 %20, 1
  br label %.lr.ph68.split

.lr.ph68.split.us:                                ; preds = %.lr.ph68
  %38 = load i32, ptr %35, align 8
  %39 = sext i32 %38 to i64
  %.promoted = load ptr, ptr %30, align 8
  %40 = zext i32 %18 to i64
  %41 = mul nsw i64 %40, %39
  %scevgep = getelementptr i8, ptr %.promoted, i64 %41
  store ptr %scevgep, ptr %30, align 8
  store i32 -1, ptr %17, align 4
  br label %._crit_edge69

.lr.ph68.split:                                   ; preds = %.lr.ph68.split.preheader, %._crit_edge
  %.05866 = phi i64 [ %98, %._crit_edge ], [ %37, %.lr.ph68.split.preheader ]
  %42 = load i32, ptr %25, align 8
  %43 = lshr i64 %.05866, 16
  %.not6062 = icmp eq i32 %42, 0
  br i1 %.not6062, label %._crit_edge, label %.lr.ph

.lr.ph:                                           ; preds = %.lr.ph68.split
  %44 = add nsw i32 %42, -1
  %45 = load ptr, ptr %30, align 8
  br i1 %.not61, label %.lr.ph.split.us, label %.lr.ph.split

.lr.ph.split.us:                                  ; preds = %.lr.ph, %.lr.ph.split.us
  %46 = phi i32 [ %59, %.lr.ph.split.us ], [ %44, %.lr.ph ]
  %.05664.us = phi ptr [ %58, %.lr.ph.split.us ], [ %45, %.lr.ph ]
  %.05963.us = phi i64 [ %57, %.lr.ph.split.us ], [ %31, %.lr.ph ]
  %47 = load ptr, ptr %32, align 8
  %48 = load i32, ptr %33, align 8
  %49 = sext i32 %48 to i64
  %50 = mul i64 %43, %49
  %51 = getelementptr inbounds nuw i8, ptr %47, i64 %50
  %52 = lshr i64 %.05963.us, 14
  %53 = and i64 %52, 1125899906842620
  %54 = getelementptr inbounds nuw i8, ptr %51, i64 %53
  %55 = load i32, ptr %54, align 4
  %56 = and i32 %55, 16777215
  store i32 %56, ptr %.05664.us, align 4
  %57 = add i64 %.05963.us, %28
  %58 = getelementptr inbounds nuw i8, ptr %.05664.us, i64 4
  %59 = add nsw i32 %46, -1
  %.not60.us = icmp eq i32 %46, 0
  br i1 %.not60.us, label %._crit_edge, label %.lr.ph.split.us, !llvm.loop !125

.lr.ph.split:                                     ; preds = %.lr.ph, %.lr.ph.split
  %60 = phi i32 [ %97, %.lr.ph.split ], [ %44, %.lr.ph ]
  %.05664 = phi ptr [ %96, %.lr.ph.split ], [ %45, %.lr.ph ]
  %.05963 = phi i64 [ %95, %.lr.ph.split ], [ %31, %.lr.ph ]
  %61 = load ptr, ptr %32, align 8
  %62 = load i32, ptr %33, align 8
  %63 = sext i32 %62 to i64
  %64 = mul i64 %43, %63
  %65 = getelementptr inbounds nuw i8, ptr %61, i64 %64
  %66 = lshr i64 %.05963, 14
  %67 = and i64 %66, 1125899906842620
  %68 = getelementptr inbounds nuw i8, ptr %65, i64 %67
  %69 = load i32, ptr %68, align 4
  %70 = lshr i32 %69, 16
  %71 = and i32 %70, 255
  %72 = lshr i32 %69, 8
  %73 = and i32 %72, 255
  %74 = and i32 %69, 255
  %75 = mul nuw nsw i32 %71, %6
  %76 = add nuw nsw i32 %75, 1
  %77 = mul nuw nsw i32 %73, %9
  %78 = add nuw nsw i32 %77, 1
  %79 = lshr i32 %78, 8
  %80 = and i32 %79, 255
  %81 = add nuw nsw i32 %80, %78
  %82 = and i32 %81, 65280
  %83 = mul nuw nsw i32 %74, %12
  %84 = add nuw nsw i32 %83, 1
  %85 = lshr i32 %84, 8
  %86 = and i32 %85, 255
  %87 = add nuw nsw i32 %86, %84
  %88 = lshr i32 %87, 8
  %89 = and i32 %88, 255
  %90 = shl nuw nsw i32 %76, 8
  %.mask = and i32 %76, 65280
  %91 = add nuw nsw i32 %.mask, %90
  %92 = and i32 %91, 16711680
  %93 = or disjoint i32 %92, %82
  %94 = or disjoint i32 %93, %89
  store i32 %94, ptr %.05664, align 4
  %95 = add i64 %.05963, %28
  %96 = getelementptr inbounds nuw i8, ptr %.05664, i64 4
  %97 = add nsw i32 %60, -1
  %.not60 = icmp eq i32 %60, 0
  br i1 %.not60, label %._crit_edge, label %.lr.ph.split, !llvm.loop !125

._crit_edge:                                      ; preds = %.lr.ph.split, %.lr.ph.split.us, %.lr.ph68.split
  %98 = add i64 %.05866, %20
  %99 = load i32, ptr %35, align 8
  %100 = load ptr, ptr %30, align 8
  %101 = sext i32 %99 to i64
  %102 = getelementptr inbounds i8, ptr %100, i64 %101
  store ptr %102, ptr %30, align 8
  %103 = load i32, ptr %17, align 4
  %104 = add nsw i32 %103, -1
  store i32 %104, ptr %17, align 4
  %.not = icmp eq i32 %103, 0
  br i1 %.not, label %._crit_edge69, label %.lr.ph68.split, !llvm.loop !126

._crit_edge69:                                    ; preds = %._crit_edge, %.lr.ph68.split.us, %1
  ret void
}